; Function Attrs: mustprogress nofree norecurse nosync nounwind willreturn memory(readwrite, inaccessiblemem: none) uwtable
define hidden void @VP8IteratorSetRow(ptr noundef captures(none) initializes((0, 8), (48, 80), (200, 204), (384, 400)) %0, i32 noundef %1) local_unnamed_addr #0 {
  %3 = getelementptr inbounds nuw i8, ptr %0, i64 40
  %4 = load ptr, ptr %3, align 8, !tbaa !3
  store i32 0, ptr %0, align 8, !tbaa !15
  %5 = getelementptr inbounds nuw i8, ptr %0, i64 4
  store i32 %1, ptr %5, align 4, !tbaa !16
  %6 = getelementptr inbounds nuw i8, ptr %4, i64 112
  %7 = getelementptr inbounds nuw i8, ptr %4, i64 60
  %8 = load i32, ptr %7, align 4, !tbaa !17
  %9 = add nsw i32 %8, -1
  %10 = and i32 %9, %1
  %11 = sext i32 %10 to i64
  %12 = getelementptr inbounds [8 x %struct.VP8BitWriter], ptr %6, i64 0, i64 %11
  %13 = getelementptr inbounds nuw i8, ptr %0, i64 56
  store ptr %12, ptr %13, align 8, !tbaa !30
  %14 = getelementptr inbounds nuw i8, ptr %4, i64 23656
  %15 = load ptr, ptr %14, align 8, !tbaa !31
  %16 = shl nsw i32 %1, 2
  %17 = getelementptr inbounds nuw i8, ptr %4, i64 56
  %18 = load i32, ptr %17, align 8, !tbaa !32
  %19 = mul nsw i32 %16, %18
  %20 = sext i32 %19 to i64
  %21 = getelementptr inbounds i8, ptr %15, i64 %20
  %22 = getelementptr inbounds nuw i8, ptr %0, i64 64
  store ptr %21, ptr %22, align 8, !tbaa !33
  %23 = getelementptr inbounds nuw i8, ptr %4, i64 23664
  %24 = load ptr, ptr %23, align 8, !tbaa !34
  %25 = getelementptr inbounds nuw i8, ptr %0, i64 72
  store ptr %24, ptr %25, align 8, !tbaa !35
  %26 = getelementptr inbounds nuw i8, ptr %4, i64 23648
  %27 = load ptr, ptr %26, align 8, !tbaa !36
  %28 = getelementptr inbounds nuw i8, ptr %4, i64 48
  %29 = load i32, ptr %28, align 8, !tbaa !37
  %30 = mul nsw i32 %29, %1
  %31 = sext i32 %30 to i64
  %32 = getelementptr inbounds %struct.VP8MBInfo, ptr %27, i64 %31
  %33 = getelementptr inbounds nuw i8, ptr %0, i64 48
  store ptr %32, ptr %33, align 8, !tbaa !38
  %34 = getelementptr inbounds nuw i8, ptr %4, i64 23672
  %35 = load ptr, ptr %34, align 8, !tbaa !39
  %36 = getelementptr inbounds nuw i8, ptr %0, i64 384
  store ptr %35, ptr %36, align 8, !tbaa !40
  %37 = getelementptr inbounds nuw i8, ptr %4, i64 23680
  %38 = load ptr, ptr %37, align 8, !tbaa !41
  %39 = getelementptr inbounds nuw i8, ptr %0, i64 392
  store ptr %38, ptr %39, align 8, !tbaa !42
  %40 = icmp sgt i32 %1, 0
  %41 = select i1 %40, i8 -127, i8 127
  %42 = getelementptr inbounds nuw i8, ptr %0, i64 376
  %43 = load ptr, ptr %42, align 8, !tbaa !43
  %44 = getelementptr inbounds i8, ptr %43, i64 -1
  store i8 %41, ptr %44, align 1, !tbaa !44
  %45 = getelementptr inbounds nuw i8, ptr %0, i64 368
  %46 = load ptr, ptr %45, align 8, !tbaa !45
  %47 = getelementptr inbounds i8, ptr %46, i64 -1
  store i8 %41, ptr %47, align 1, !tbaa !44
  %48 = getelementptr inbounds nuw i8, ptr %0, i64 360
  %49 = load ptr, ptr %48, align 8, !tbaa !46
  %50 = getelementptr inbounds i8, ptr %49, i64 -1
  store i8 %41, ptr %50, align 1, !tbaa !44
  %51 = load ptr, ptr %48, align 8, !tbaa !46
  tail call void @llvm.memset.p0.i64(ptr noundef nonnull align 1 dereferenceable(16) %51, i8 -127, i64 16, i1 false)
  %52 = load ptr, ptr %45, align 8, !tbaa !45
  store i64 -9114861777597660799, ptr %52, align 1
  %53 = load ptr, ptr %42, align 8, !tbaa !43
  store i64 -9114861777597660799, ptr %53, align 1
  %54 = getelementptr inbounds nuw i8, ptr %0, i64 200
  store i32 0, ptr %54, align 8, !tbaa !47
  %55 = getelementptr inbounds nuw i8, ptr %0, i64 352
  %56 = load ptr, ptr %55, align 8, !tbaa !48
  %.not.i = icmp eq ptr %56, null
  br i1 %.not.i, label %InitLeft.exit, label %57

57:                                               ; preds = %2
  %58 = getelementptr inbounds nuw i8, ptr %0, i64 344
  store i32 0, ptr %58, align 8
  br label %InitLeft.exit

InitLeft.exit:                                    ; preds = %2, %57
  ret void
}